target datalayout = "e-m:e-p270:32:32-p271:32:32-p272:64:64-i64:64-i128:128-f80:128-n8:16:32:64-S128"
target triple = "x86_64-pc-linux-gnu"

%struct._zend_executor_globals = type { %struct._zval_struct, %struct._zval_struct, [32 x ptr], ptr, ptr, %struct._zend_array, %struct._zend_array, ptr, i32, i32, ptr, ptr, ptr, ptr, ptr, ptr, i64, ptr, ptr, i32, i32, i64, i32, i32, i32, i8, i8, %struct.zend_atomic_bool_s, %struct.zend_atomic_bool_s, ptr, i64, ptr, ptr, %struct._zend_array, %struct._zend_array, i32, i8, %struct._zval_struct, %struct._zval_struct, %struct._zend_stack, %struct._zend_stack, %struct._zend_stack, ptr, i32, i32, i64, ptr, ptr, ptr, %struct._zend_objects_store, ptr, ptr, ptr, [3 x %struct._zend_op], ptr, i8, i8, i64, i32, i32, ptr, [16 x %struct._HashTableIterator], ptr, %union._zend_function, %struct._zend_op, %struct._zend_array, i64, %struct.zend_get_gc_buffer, ptr, ptr, ptr, i64, i8, i32, ptr, ptr, i64, %struct._zend_call_stack, i64, i64, [6 x ptr] }
%struct.zend_atomic_bool_s = type { i8 }
%struct._zval_struct = type { %union._zend_value, %union.anon, %union.anon.2 }
%union._zend_value = type { i64 }
%union.anon = type { i32 }
%union.anon.2 = type { i32 }
%struct._zend_stack = type { i32, i32, i32, ptr }
%struct._zend_objects_store = type { ptr, i32, i32, i32 }
%struct._HashTableIterator = type { ptr, i32, i32 }
%union._zend_function = type { %struct._zend_op_array }
%struct._zend_op_array = type { i8, [3 x i8], i32, ptr, ptr, ptr, i32, i32, ptr, ptr, ptr, ptr, i32, i32, i32, i32, ptr, ptr, ptr, ptr, ptr, i32, i32, ptr, ptr, ptr, i32, i32, i32, i32, ptr, ptr, [6 x ptr] }
%struct._zend_op = type { ptr, %union._znode_op, %union._znode_op, %union._znode_op, i32, i32, i8, i8, i8, i8 }
%union._znode_op = type { i32 }
%struct._zend_array = type { %struct._zend_refcounted_h, %union.anon.4, i32, %union.anon.6, i32, i32, i32, i32, i64, ptr }
%struct._zend_refcounted_h = type { i32, %union.anon.3 }
%union.anon.3 = type { i32 }
%union.anon.4 = type { i32 }
%union.anon.6 = type { ptr }
%struct.zend_get_gc_buffer = type { ptr, ptr, ptr }
%struct._zend_call_stack = type { ptr, i64 }
%struct._zend_execute_data = type { ptr, ptr, ptr, ptr, %struct._zval_struct, ptr, ptr, ptr, ptr }
%struct.php_sxe_object = type { ptr, ptr, ptr, ptr, %struct.anon.8, %struct._zval_struct, ptr, %struct._zend_object }
%struct.anon.8 = type { ptr, ptr, i32, i32, %struct._zval_struct }
%struct._zend_object = type { %struct._zend_refcounted_h, i32, ptr, ptr, ptr, [1 x %struct._zval_struct] }
%struct._php_libxml_node_ptr = type { ptr, i32, ptr }
%struct._xmlNode = type { ptr, i32, ptr, ptr, ptr, ptr, ptr, ptr, ptr, ptr, ptr, ptr, ptr, ptr, i16, i16 }

@executor_globals = external global %struct._zend_executor_globals, align 8
@.str.1 = private unnamed_addr constant [45 x i8] c"SimpleXMLElement is not properly initialized\00", align 1
@.str.4 = private unnamed_addr constant [3 x i8] c"|b\00", align 1

; Function Attrs: nounwind uwtable
define internal ptr @php_sxe_reset_iterator_no_clear_iter_data(ptr noundef %0, i32 noundef %1) #0 {
  %3 = alloca ptr, align 8
  %4 = alloca ptr, align 8
  %5 = alloca i32, align 4
  %6 = alloca ptr, align 8
  store ptr %0, ptr %4, align 8
  store i32 %1, ptr %5, align 4
  %7 = load ptr, ptr %4, align 8
  %8 = getelementptr inbounds %struct.php_sxe_object, ptr %7, i32 0, i32 0
  %9 = load ptr, ptr %8, align 8
  %10 = icmp ne ptr %9, null
  br i1 %10, label %11, label %24

11:                                               ; preds = %2
  %12 = load ptr, ptr %4, align 8
  %13 = getelementptr inbounds %struct.php_sxe_object, ptr %12, i32 0, i32 0
  %14 = load ptr, ptr %13, align 8
  %15 = getelementptr inbounds %struct._php_libxml_node_ptr, ptr %14, i32 0, i32 0
  %16 = load ptr, ptr %15, align 8
  %17 = icmp ne ptr %16, null
  br i1 %17, label %18, label %24

18:                                               ; preds = %11
  %19 = load ptr, ptr %4, align 8
  %20 = getelementptr inbounds %struct.php_sxe_object, ptr %19, i32 0, i32 0
  %21 = load ptr, ptr %20, align 8
  %22 = getelementptr inbounds %struct._php_libxml_node_ptr, ptr %21, i32 0, i32 0
  %23 = load ptr, ptr %22, align 8
  store ptr %23, ptr %6, align 8
  br label %25

24:                                               ; preds = %11, %2
  store ptr null, ptr %6, align 8
  call void (ptr, ptr, ...) @zend_throw_error(ptr noundef null, ptr noundef @.str.1)
  br label %25

25:                                               ; preds = %24, %18
  %26 = load ptr, ptr %6, align 8
  %27 = icmp ne ptr %26, null
  br i1 %27, label %28, label %50

28:                                               ; preds = %25
  %29 = load ptr, ptr %4, align 8
  %30 = getelementptr inbounds %struct.php_sxe_object, ptr %29, i32 0, i32 4
  %31 = getelementptr inbounds %struct.anon.8, ptr %30, i32 0, i32 3
  %32 = load i32, ptr %31, align 4
  switch i32 %32, label %41 [
    i32 1, label %33
    i32 2, label %33
    i32 0, label %33
    i32 3, label %37
  ]

33:                                               ; preds = %28, %28, %28
  %34 = load ptr, ptr %6, align 8
  %35 = getelementptr inbounds %struct._xmlNode, ptr %34, i32 0, i32 3
  %36 = load ptr, ptr %35, align 8
  store ptr %36, ptr %6, align 8
  br label %41

37:                                               ; preds = %28
  %38 = load ptr, ptr %6, align 8
  %39 = getelementptr inbounds %struct._xmlNode, ptr %38, i32 0, i32 11
  %40 = load ptr, ptr %39, align 8
  store ptr %40, ptr %6, align 8
  br label %41

41:                                               ; preds = %37, %33, %28
  %42 = load i32, ptr %5, align 4
  %43 = icmp ne i32 %42, 0
  br i1 %43, label %44, label %45

44:                                               ; preds = %41
  br label %45

45:                                               ; preds = %44, %41
  %46 = load ptr, ptr %4, align 8
  %47 = load ptr, ptr %6, align 8
  %48 = load i32, ptr %5, align 4
  %49 = call ptr @php_sxe_iterator_fetch(ptr noundef %46, ptr noundef %47, i32 noundef %48)
  store ptr %49, ptr %3, align 8
  br label %51

50:                                               ; preds = %25
  store ptr null, ptr %3, align 8
  br label %51

51:                                               ; preds = %50, %45
  %52 = load ptr, ptr %3, align 8
  ret ptr %52
}

; Function Attrs: nounwind uwtable
define internal ptr @php_sxe_get_first_node_non_destructive(ptr noundef %0, ptr noundef %1) #0 {
  %3 = alloca ptr, align 8
  %4 = alloca ptr, align 8
  %5 = alloca ptr, align 8
  store ptr %0, ptr %4, align 8
  store ptr %1, ptr %5, align 8
  %6 = load ptr, ptr %4, align 8
  %7 = icmp ne ptr %6, null
  br i1 %7, label %8, label %17

8:                                                ; preds = %2
  %9 = load ptr, ptr %4, align 8
  %10 = getelementptr inbounds %struct.php_sxe_object, ptr %9, i32 0, i32 4
  %11 = getelementptr inbounds %struct.anon.8, ptr %10, i32 0, i32 3
  %12 = load i32, ptr %11, align 4
  %13 = icmp ne i32 %12, 0
  br i1 %13, label %14, label %17

14:                                               ; preds = %8
  %15 = load ptr, ptr %4, align 8
  %16 = call ptr @php_sxe_reset_iterator_no_clear_iter_data(ptr noundef %15, i32 noundef 0)
  store ptr %16, ptr %3, align 8
  br label %19

17:                                               ; preds = %8, %2
  %18 = load ptr, ptr %5, align 8
  store ptr %18, ptr %3, align 8
  br label %19

19:                                               ; preds = %17, %14
  %20 = load ptr, ptr %3, align 8
  ret ptr %20
}

; Function Attrs: nounwind uwtable
define internal ptr @php_sxe_fetch_object(ptr noundef %0) #0 {
  %2 = alloca ptr, align 8
  store ptr %0, ptr %2, align 8
  %3 = load ptr, ptr %2, align 8
  %4 = getelementptr inbounds i8, ptr %3, i64 -96
  ret ptr %4
}

; Function Attrs: nounwind uwtable
define hidden void @zim_SimpleXMLElement_getNamespaces(ptr noundef %0, ptr noundef %1) #0 {
  %3 = alloca ptr, align 8
  %4 = alloca ptr, align 8
  %5 = alloca i8, align 1
  %6 = alloca ptr, align 8
  %7 = alloca ptr, align 8
  %8 = alloca ptr, align 8
  %9 = alloca ptr, align 8
  store ptr %0, ptr %3, align 8
  store ptr %1, ptr %4, align 8
  store i8 0, ptr %5, align 1
  %10 = load ptr, ptr %3, align 8
  %11 = getelementptr inbounds %struct._zend_execute_data, ptr %10, i32 0, i32 4
  %12 = getelementptr inbounds %struct._zval_struct, ptr %11, i32 0, i32 2
  %13 = load i32, ptr %12, align 4
  %14 = call i32 (i32, ptr, ...) @zend_parse_parameters(i32 noundef %13, ptr noundef @.str.4, ptr noundef %5)
  %15 = icmp eq i32 %14, -1
  br i1 %15, label %16, label %21

16:                                               ; preds = %2
  br label %17

17:                                               ; preds = %16
  %18 = load ptr, ptr getelementptr inbounds (%struct._zend_executor_globals, ptr @executor_globals, i32 0, i32 50), align 8
  %19 = icmp ne ptr %18, null
  call void @llvm.assume(i1 %19)
  br label %88

20:                                               ; No predecessors!
  br label %21

21:                                               ; preds = %20, %2
  br label %22

22:                                               ; preds = %21
  %23 = call ptr @_zend_new_array_0()
  store ptr %23, ptr %8, align 8
  %24 = load ptr, ptr %4, align 8
  store ptr %24, ptr %9, align 8
  %25 = load ptr, ptr %8, align 8
  %26 = load ptr, ptr %9, align 8
  %27 = getelementptr inbounds %struct._zval_struct, ptr %26, i32 0, i32 0
  store ptr %25, ptr %27, align 8
  %28 = load ptr, ptr %9, align 8
  %29 = getelementptr inbounds %struct._zval_struct, ptr %28, i32 0, i32 1
  store i32 775, ptr %29, align 8
  br label %30

30:                                               ; preds = %22
  %31 = load ptr, ptr %3, align 8
  %32 = getelementptr inbounds %struct._zend_execute_data, ptr %31, i32 0, i32 4
  %33 = getelementptr inbounds %struct._zval_struct, ptr %32, i32 0, i32 0
  %34 = load ptr, ptr %33, align 8
  %35 = call ptr @php_sxe_fetch_object(ptr noundef %34)
  store ptr %35, ptr %6, align 8
  %36 = load ptr, ptr %6, align 8
  %37 = getelementptr inbounds %struct.php_sxe_object, ptr %36, i32 0, i32 0
  %38 = load ptr, ptr %37, align 8
  %39 = icmp ne ptr %38, null
  br i1 %39, label %40, label %53

40:                                               ; preds = %30
  %41 = load ptr, ptr %6, align 8
  %42 = getelementptr inbounds %struct.php_sxe_object, ptr %41, i32 0, i32 0
  %43 = load ptr, ptr %42, align 8
  %44 = getelementptr inbounds %struct._php_libxml_node_ptr, ptr %43, i32 0, i32 0
  %45 = load ptr, ptr %44, align 8
  %46 = icmp ne ptr %45, null
  br i1 %46, label %47, label %53

47:                                               ; preds = %40
  %48 = load ptr, ptr %6, align 8
  %49 = getelementptr inbounds %struct.php_sxe_object, ptr %48, i32 0, i32 0
  %50 = load ptr, ptr %49, align 8
  %51 = getelementptr inbounds %struct._php_libxml_node_ptr, ptr %50, i32 0, i32 0
  %52 = load ptr, ptr %51, align 8
  store ptr %52, ptr %7, align 8
  br label %54

53:                                               ; preds = %40, %30
  store ptr null, ptr %7, align 8
  call void (ptr, ptr, ...) @zend_throw_error(ptr noundef null, ptr noundef @.str.1)
  br label %54

54:                                               ; preds = %53, %47
  %55 = load ptr, ptr %6, align 8
  %56 = load ptr, ptr %7, align 8
  %57 = call ptr @php_sxe_get_first_node_non_destructive(ptr noundef %55, ptr noundef %56)
  store ptr %57, ptr %7, align 8
  %58 = load ptr, ptr %7, align 8
  %59 = icmp ne ptr %58, null
  br i1 %59, label %60, label %88

60:                                               ; preds = %54
  %61 = load ptr, ptr %7, align 8
  %62 = getelementptr inbounds %struct._xmlNode, ptr %61, i32 0, i32 1
  %63 = load i32, ptr %62, align 8
  %64 = icmp eq i32 %63, 1
  br i1 %64, label %65, label %71

65:                                               ; preds = %60
  %66 = load ptr, ptr %6, align 8
  %67 = load ptr, ptr %7, align 8
  %68 = load i8, ptr %5, align 1
  %69 = trunc i8 %68 to i1
  %70 = load ptr, ptr %4, align 8
  call void @sxe_add_namespaces(ptr noundef %66, ptr noundef %67, i1 noundef zeroext %69, ptr noundef %70)
  br label %87

71:                                               ; preds = %60
  %72 = load ptr, ptr %7, align 8
  %73 = getelementptr inbounds %struct._xmlNode, ptr %72, i32 0, i32 1
  %74 = load i32, ptr %73, align 8
  %75 = icmp eq i32 %74, 2
  br i1 %75, label %76, label %86

76:                                               ; preds = %71
  %77 = load ptr, ptr %7, align 8
  %78 = getelementptr inbounds %struct._xmlNode, ptr %77, i32 0, i32 9
  %79 = load ptr, ptr %78, align 8
  %80 = icmp ne ptr %79, null
  br i1 %80, label %81, label %86

81:                                               ; preds = %76
  %82 = load ptr, ptr %4, align 8
  %83 = load ptr, ptr %7, align 8
  %84 = getelementptr inbounds %struct._xmlNode, ptr %83, i32 0, i32 9
  %85 = load ptr, ptr %84, align 8
  call void @sxe_add_namespace_name(ptr noundef %82, ptr noundef %85)
  br label %86

86:                                               ; preds = %81, %76, %71
  br label %87

87:                                               ; preds = %86, %65
  br label %88

88:                                               ; preds = %87, %54, %17
  ret void
}