; Function Attrs: nounwind uwtable
define hidden void @zim_SimpleXMLElement_getNamespaces(ptr nocapture noundef readonly %0, ptr nocapture noundef %1) #1 {
  %3 = alloca i8, align 1
  store i8 0, ptr %3, align 1
  %4 = getelementptr inbounds i8, ptr %0, i64 44
  %5 = load i32, ptr %4, align 4
  %6 = call i32 (i32, ptr, ...) @zend_parse_parameters(i32 noundef %5, ptr noundef nonnull @.str.4, ptr noundef nonnull %3) #14
  %7 = icmp eq i32 %6, -1
  br i1 %7, label %8, label %11

8:                                                ; preds = %2
  %9 = load ptr, ptr getelementptr inbounds (%struct._zend_executor_globals, ptr @executor_globals, i64 0, i32 50), align 8
  %10 = icmp ne ptr %9, null
  call void @llvm.assume(i1 %10)
  br label %46

11:                                               ; preds = %2
  %12 = getelementptr inbounds i8, ptr %0, i64 32
  %13 = call ptr @_zend_new_array_0() #14
  store ptr %13, ptr %1, align 8
  %14 = getelementptr inbounds i8, ptr %1, i64 8
  store i32 775, ptr %14, align 8
  %15 = load ptr, ptr %12, align 8
  %16 = getelementptr inbounds i8, ptr %15, i64 -96
  %17 = load ptr, ptr %16, align 8
  %.not = icmp eq ptr %17, null
  br i1 %.not, label %20, label %18

18:                                               ; preds = %11
  %19 = load ptr, ptr %17, align 8
  %.not25 = icmp eq ptr %19, null
  br i1 %.not25, label %20, label %21

20:                                               ; preds = %18, %11
  call void (ptr, ptr, ...) @zend_throw_error(ptr noundef null, ptr noundef nonnull @.str.1) #14
  br label %21

21:                                               ; preds = %18, %20
  %.0 = phi ptr [ null, %20 ], [ %19, %18 ]
  %22 = getelementptr inbounds i8, ptr %15, i64 -44
  %23 = load i32, ptr %22, align 4
  %.not6.i = icmp eq i32 %23, 0
  br i1 %.not6.i, label %php_sxe_get_first_node_non_destructive.exit, label %24

24:                                               ; preds = %21
  %25 = load ptr, ptr %16, align 8
  %.not.i.i = icmp eq ptr %25, null
  br i1 %.not.i.i, label %php_sxe_get_first_node_non_destructive.exit.thread, label %26

26:                                               ; preds = %24
  %27 = load ptr, ptr %25, align 8
  %.not14.i.i = icmp eq ptr %27, null
  br i1 %.not14.i.i, label %php_sxe_get_first_node_non_destructive.exit.thread, label %28

php_sxe_get_first_node_non_destructive.exit.thread: ; preds = %24, %26
  call void (ptr, ptr, ...) @zend_throw_error(ptr noundef null, ptr noundef nonnull @.str.1) #14
  br label %46

28:                                               ; preds = %26
  %29 = icmp ult i32 %23, 4
  br i1 %29, label %switch.lookup, label %33

switch.lookup:                                    ; preds = %28
  %switch.tableidx = add nsw i32 %23, -1
  %30 = sext i32 %switch.tableidx to i64
  %switch.gep = getelementptr inbounds [3 x i64], ptr @switch.table.sxe_get_prop_hash, i64 0, i64 %30
  %switch.load = load i64, ptr %switch.gep, align 8
  %31 = getelementptr inbounds i8, ptr %27, i64 %switch.load
  %32 = load ptr, ptr %31, align 8
  br label %33

33:                                               ; preds = %28, %switch.lookup
  %.1.i.i = phi ptr [ %27, %28 ], [ %32, %switch.lookup ]
  %34 = call fastcc ptr @php_sxe_iterator_fetch(ptr noundef nonnull %16, ptr noundef %.1.i.i, i32 noundef 0)
  br label %php_sxe_get_first_node_non_destructive.exit

php_sxe_get_first_node_non_destructive.exit:      ; preds = %21, %33
  %.0.i = phi ptr [ %.0, %21 ], [ %34, %33 ]
  %.not26 = icmp eq ptr %.0.i, null
  br i1 %.not26, label %46, label %35

35:                                               ; preds = %php_sxe_get_first_node_non_destructive.exit
  %36 = getelementptr inbounds i8, ptr %.0.i, i64 8
  %37 = load i32, ptr %36, align 8
  switch i32 %37, label %46 [
    i32 1, label %38
    i32 2, label %42
  ]

38:                                               ; preds = %35
  %39 = load i8, ptr %3, align 1
  %40 = and i8 %39, 1
  %41 = icmp ne i8 %40, 0
  call fastcc void @sxe_add_namespaces(ptr noundef nonnull %.0.i, i1 noundef zeroext %41, ptr noundef nonnull %1)
  br label %46

42:                                               ; preds = %35
  %43 = getelementptr inbounds i8, ptr %.0.i, i64 72
  %44 = load ptr, ptr %43, align 8
  %.not27 = icmp eq ptr %44, null
  br i1 %.not27, label %46, label %45

45:                                               ; preds = %42
  call fastcc void @sxe_add_namespace_name(ptr noundef nonnull %1, ptr noundef nonnull %44)
  br label %46

46:                                               ; preds = %php_sxe_get_first_node_non_destructive.exit.thread, %35, %38, %45, %42, %php_sxe_get_first_node_non_destructive.exit, %8
  ret void
}